target datalayout = "e-m:e-p270:32:32-p271:32:32-p272:64:64-i64:64-i128:128-f80:128-n8:16:32:64-S128"
target triple = "x86_64-pc-linux-gnu"

@_ZL22stbi__g_failure_reason = internal global ptr null, align 8
@.str.2 = private unnamed_addr constant [19 x i8] c"unknown image type\00", align 1
@.str.23 = private unnamed_addr constant [9 x i8] c"outofmem\00", align 1
@_ZL15stbi__l2h_gamma = internal global float 0x40019999A0000000, align 4
@_ZL15stbi__l2h_scale = internal global float 1.000000e+00, align 4

; Function Attrs: mustprogress nounwind uwtable
define internal noundef i32 @_ZL20stbi__addsizes_validii(i32 noundef %0, i32 noundef %1) #0 {
  %3 = alloca i32, align 4
  %4 = alloca i32, align 4
  %5 = alloca i32, align 4
  store i32 %0, ptr %4, align 4, !tbaa !11
  store i32 %1, ptr %5, align 4, !tbaa !11
  %6 = load i32, ptr %5, align 4, !tbaa !11
  %7 = icmp slt i32 %6, 0
  br i1 %7, label %8, label %9

8:                                                ; preds = %2
  store i32 0, ptr %3, align 4
  br label %15

9:                                                ; preds = %2
  %10 = load i32, ptr %4, align 4, !tbaa !11
  %11 = load i32, ptr %5, align 4, !tbaa !11
  %12 = sub nsw i32 2147483647, %11
  %13 = icmp sle i32 %10, %12
  %14 = zext i1 %13 to i32
  store i32 %14, ptr %3, align 4
  br label %15

15:                                               ; preds = %9, %8
  %16 = load i32, ptr %3, align 4
  ret i32 %16
}

; Function Attrs: mustprogress nounwind uwtable
define internal noundef i32 @_ZL21stbi__mul2sizes_validii(i32 noundef %0, i32 noundef %1) #0 {
  %3 = alloca i32, align 4
  %4 = alloca i32, align 4
  %5 = alloca i32, align 4
  store i32 %0, ptr %4, align 4, !tbaa !11
  store i32 %1, ptr %5, align 4, !tbaa !11
  %6 = load i32, ptr %4, align 4, !tbaa !11
  %7 = icmp slt i32 %6, 0
  br i1 %7, label %11, label %8

8:                                                ; preds = %2
  %9 = load i32, ptr %5, align 4, !tbaa !11
  %10 = icmp slt i32 %9, 0
  br i1 %10, label %11, label %12

11:                                               ; preds = %8, %2
  store i32 0, ptr %3, align 4
  br label %22

12:                                               ; preds = %8
  %13 = load i32, ptr %5, align 4, !tbaa !11
  %14 = icmp eq i32 %13, 0
  br i1 %14, label %15, label %16

15:                                               ; preds = %12
  store i32 1, ptr %3, align 4
  br label %22

16:                                               ; preds = %12
  %17 = load i32, ptr %4, align 4, !tbaa !11
  %18 = load i32, ptr %5, align 4, !tbaa !11
  %19 = sdiv i32 2147483647, %18
  %20 = icmp sle i32 %17, %19
  %21 = zext i1 %20 to i32
  store i32 %21, ptr %3, align 4
  br label %22

22:                                               ; preds = %16, %15, %11
  %23 = load i32, ptr %3, align 4
  ret i32 %23
}

; Function Attrs: mustprogress nounwind uwtable
define internal noundef ptr @_ZL12stbi__mallocm(i64 noundef %0) #0 {
  %2 = alloca i64, align 8
  store i64 %0, ptr %2, align 8, !tbaa !40
  %3 = load i64, ptr %2, align 8, !tbaa !40
  %4 = call noalias ptr @malloc(i64 noundef %3) #24
  ret ptr %4
}

; Function Attrs: mustprogress nounwind uwtable
define internal noundef i32 @_ZL21stbi__mad4sizes_validiiiii(i32 noundef %0, i32 noundef %1, i32 noundef %2, i32 noundef %3, i32 noundef %4) #0 {
  %6 = alloca i32, align 4
  %7 = alloca i32, align 4
  %8 = alloca i32, align 4
  %9 = alloca i32, align 4
  %10 = alloca i32, align 4
  store i32 %0, ptr %6, align 4, !tbaa !11
  store i32 %1, ptr %7, align 4, !tbaa !11
  store i32 %2, ptr %8, align 4, !tbaa !11
  store i32 %3, ptr %9, align 4, !tbaa !11
  store i32 %4, ptr %10, align 4, !tbaa !11
  %11 = load i32, ptr %6, align 4, !tbaa !11
  %12 = load i32, ptr %7, align 4, !tbaa !11
  %13 = call noundef i32 @_ZL21stbi__mul2sizes_validii(i32 noundef %11, i32 noundef %12)
  %14 = icmp ne i32 %13, 0
  br i1 %14, label %15, label %42

15:                                               ; preds = %5
  %16 = load i32, ptr %6, align 4, !tbaa !11
  %17 = load i32, ptr %7, align 4, !tbaa !11
  %18 = mul nsw i32 %16, %17
  %19 = load i32, ptr %8, align 4, !tbaa !11
  %20 = call noundef i32 @_ZL21stbi__mul2sizes_validii(i32 noundef %18, i32 noundef %19)
  %21 = icmp ne i32 %20, 0
  br i1 %21, label %22, label %42

22:                                               ; preds = %15
  %23 = load i32, ptr %6, align 4, !tbaa !11
  %24 = load i32, ptr %7, align 4, !tbaa !11
  %25 = mul nsw i32 %23, %24
  %26 = load i32, ptr %8, align 4, !tbaa !11
  %27 = mul nsw i32 %25, %26
  %28 = load i32, ptr %9, align 4, !tbaa !11
  %29 = call noundef i32 @_ZL21stbi__mul2sizes_validii(i32 noundef %27, i32 noundef %28)
  %30 = icmp ne i32 %29, 0
  br i1 %30, label %31, label %42

31:                                               ; preds = %22
  %32 = load i32, ptr %6, align 4, !tbaa !11
  %33 = load i32, ptr %7, align 4, !tbaa !11
  %34 = mul nsw i32 %32, %33
  %35 = load i32, ptr %8, align 4, !tbaa !11
  %36 = mul nsw i32 %34, %35
  %37 = load i32, ptr %9, align 4, !tbaa !11
  %38 = mul nsw i32 %36, %37
  %39 = load i32, ptr %10, align 4, !tbaa !11
  %40 = call noundef i32 @_ZL20stbi__addsizes_validii(i32 noundef %38, i32 noundef %39)
  %41 = icmp ne i32 %40, 0
  br label %42

42:                                               ; preds = %31, %22, %15, %5
  %43 = phi i1 [ false, %22 ], [ false, %15 ], [ false, %5 ], [ %41, %31 ]
  %44 = zext i1 %43 to i32
  ret i32 %44
}

; Function Attrs: mustprogress nounwind uwtable
define internal noundef ptr @_ZL17stbi__malloc_mad4iiiii(i32 noundef %0, i32 noundef %1, i32 noundef %2, i32 noundef %3, i32 noundef %4) #0 {
  %6 = alloca ptr, align 8
  %7 = alloca i32, align 4
  %8 = alloca i32, align 4
  %9 = alloca i32, align 4
  %10 = alloca i32, align 4
  %11 = alloca i32, align 4
  store i32 %0, ptr %7, align 4, !tbaa !11
  store i32 %1, ptr %8, align 4, !tbaa !11
  store i32 %2, ptr %9, align 4, !tbaa !11
  store i32 %3, ptr %10, align 4, !tbaa !11
  store i32 %4, ptr %11, align 4, !tbaa !11
  %12 = load i32, ptr %7, align 4, !tbaa !11
  %13 = load i32, ptr %8, align 4, !tbaa !11
  %14 = load i32, ptr %9, align 4, !tbaa !11
  %15 = load i32, ptr %10, align 4, !tbaa !11
  %16 = load i32, ptr %11, align 4, !tbaa !11
  %17 = call noundef i32 @_ZL21stbi__mad4sizes_validiiiii(i32 noundef %12, i32 noundef %13, i32 noundef %14, i32 noundef %15, i32 noundef %16)
  %18 = icmp ne i32 %17, 0
  br i1 %18, label %20, label %19

19:                                               ; preds = %5
  store ptr null, ptr %6, align 8
  br label %32

20:                                               ; preds = %5
  %21 = load i32, ptr %7, align 4, !tbaa !11
  %22 = load i32, ptr %8, align 4, !tbaa !11
  %23 = mul nsw i32 %21, %22
  %24 = load i32, ptr %9, align 4, !tbaa !11
  %25 = mul nsw i32 %23, %24
  %26 = load i32, ptr %10, align 4, !tbaa !11
  %27 = mul nsw i32 %25, %26
  %28 = load i32, ptr %11, align 4, !tbaa !11
  %29 = add nsw i32 %27, %28
  %30 = sext i32 %29 to i64
  %31 = call noundef ptr @_ZL12stbi__mallocm(i64 noundef %30)
  store ptr %31, ptr %6, align 8
  br label %32

32:                                               ; preds = %20, %19
  %33 = load ptr, ptr %6, align 8
  ret ptr %33
}

; Function Attrs: mustprogress nounwind uwtable
define internal noundef i32 @_ZL9stbi__errPKc(ptr noundef %0) #0 {
  %2 = alloca ptr, align 8
  store ptr %0, ptr %2, align 8, !tbaa !5
  %3 = load ptr, ptr %2, align 8, !tbaa !5
  store ptr %3, ptr @_ZL22stbi__g_failure_reason, align 8, !tbaa !5
  ret i32 0
}

; Function Attrs: mustprogress nounwind uwtable
define internal noundef ptr @_ZL16stbi__ldr_to_hdrPhiii(ptr noundef %0, i32 noundef %1, i32 noundef %2, i32 noundef %3) #0 {
  %5 = alloca ptr, align 8
  %6 = alloca ptr, align 8
  %7 = alloca i32, align 4
  %8 = alloca i32, align 4
  %9 = alloca i32, align 4
  %10 = alloca i32, align 4
  %11 = alloca i32, align 4
  %12 = alloca i32, align 4
  %13 = alloca ptr, align 8
  %14 = alloca i32, align 4
  store ptr %0, ptr %6, align 8, !tbaa !5
  store i32 %1, ptr %7, align 4, !tbaa !11
  store i32 %2, ptr %8, align 4, !tbaa !11
  store i32 %3, ptr %9, align 4, !tbaa !11
  call void @llvm.lifetime.start.p0(i64 4, ptr %10) #22
  call void @llvm.lifetime.start.p0(i64 4, ptr %11) #22
  call void @llvm.lifetime.start.p0(i64 4, ptr %12) #22
  call void @llvm.lifetime.start.p0(i64 8, ptr %13) #22
  %15 = load ptr, ptr %6, align 8, !tbaa !5
  %16 = icmp ne ptr %15, null
  br i1 %16, label %18, label %17

17:                                               ; preds = %4
  store ptr null, ptr %5, align 8
  store i32 1, ptr %14, align 4
  br label %123

18:                                               ; preds = %4
  %19 = load i32, ptr %7, align 4, !tbaa !11
  %20 = load i32, ptr %8, align 4, !tbaa !11
  %21 = load i32, ptr %9, align 4, !tbaa !11
  %22 = call noundef ptr @_ZL17stbi__malloc_mad4iiiii(i32 noundef %19, i32 noundef %20, i32 noundef %21, i32 noundef 4, i32 noundef 0)
  store ptr %22, ptr %13, align 8, !tbaa !302
  %23 = load ptr, ptr %13, align 8, !tbaa !302
  %24 = icmp eq ptr %23, null
  br i1 %24, label %25, label %31

25:                                               ; preds = %18
  %26 = load ptr, ptr %6, align 8, !tbaa !5
  call void @free(ptr noundef %26) #22
  %27 = call noundef i32 @_ZL9stbi__errPKc(ptr noundef @.str.23)
  %28 = icmp ne i32 %27, 0
  %29 = select i1 %28, i64 0, i64 0
  %30 = inttoptr i64 %29 to ptr
  store ptr %30, ptr %5, align 8
  store i32 1, ptr %14, align 4
  br label %123

31:                                               ; preds = %18
  %32 = load i32, ptr %9, align 4, !tbaa !11
  %33 = and i32 %32, 1
  %34 = icmp ne i32 %33, 0
  br i1 %34, label %35, label %37

35:                                               ; preds = %31
  %36 = load i32, ptr %9, align 4, !tbaa !11
  store i32 %36, ptr %12, align 4, !tbaa !11
  br label %40

37:                                               ; preds = %31
  %38 = load i32, ptr %9, align 4, !tbaa !11
  %39 = sub nsw i32 %38, 1
  store i32 %39, ptr %12, align 4, !tbaa !11
  br label %40

40:                                               ; preds = %37, %35
  store i32 0, ptr %10, align 4, !tbaa !11
  br label %41

41:                                               ; preds = %81, %40
  %42 = load i32, ptr %10, align 4, !tbaa !11
  %43 = load i32, ptr %7, align 4, !tbaa !11
  %44 = load i32, ptr %8, align 4, !tbaa !11
  %45 = mul nsw i32 %43, %44
  %46 = icmp slt i32 %42, %45
  br i1 %46, label %47, label %84

47:                                               ; preds = %41
  store i32 0, ptr %11, align 4, !tbaa !11
  br label %48

48:                                               ; preds = %77, %47
  %49 = load i32, ptr %11, align 4, !tbaa !11
  %50 = load i32, ptr %12, align 4, !tbaa !11
  %51 = icmp slt i32 %49, %50
  br i1 %51, label %52, label %80

52:                                               ; preds = %48
  %53 = load ptr, ptr %6, align 8, !tbaa !5
  %54 = load i32, ptr %10, align 4, !tbaa !11
  %55 = load i32, ptr %9, align 4, !tbaa !11
  %56 = mul nsw i32 %54, %55
  %57 = load i32, ptr %11, align 4, !tbaa !11
  %58 = add nsw i32 %56, %57
  %59 = sext i32 %58 to i64
  %60 = getelementptr inbounds i8, ptr %53, i64 %59
  %61 = load i8, ptr %60, align 1, !tbaa !31
  %62 = zext i8 %61 to i32
  %63 = sitofp i32 %62 to float
  %64 = fdiv float %63, 2.550000e+02
  %65 = load float, ptr @_ZL15stbi__l2h_gamma, align 4, !tbaa !304
  %66 = call float @powf(float noundef %64, float noundef %65) #22, !tbaa !11
  %67 = load float, ptr @_ZL15stbi__l2h_scale, align 4, !tbaa !304
  %68 = fmul float %66, %67
  %69 = load ptr, ptr %13, align 8, !tbaa !302
  %70 = load i32, ptr %10, align 4, !tbaa !11
  %71 = load i32, ptr %9, align 4, !tbaa !11
  %72 = mul nsw i32 %70, %71
  %73 = load i32, ptr %11, align 4, !tbaa !11
  %74 = add nsw i32 %72, %73
  %75 = sext i32 %74 to i64
  %76 = getelementptr inbounds float, ptr %69, i64 %75
  store float %68, ptr %76, align 4, !tbaa !304
  br label %77

77:                                               ; preds = %52
  %78 = load i32, ptr %11, align 4, !tbaa !11
  %79 = add nsw i32 %78, 1
  store i32 %79, ptr %11, align 4, !tbaa !11
  br label %48, !llvm.loop !306

80:                                               ; preds = %48
  br label %81

81:                                               ; preds = %80
  %82 = load i32, ptr %10, align 4, !tbaa !11
  %83 = add nsw i32 %82, 1
  store i32 %83, ptr %10, align 4, !tbaa !11
  br label %41, !llvm.loop !307

84:                                               ; preds = %41
  %85 = load i32, ptr %12, align 4, !tbaa !11
  %86 = load i32, ptr %9, align 4, !tbaa !11
  %87 = icmp slt i32 %85, %86
  br i1 %87, label %88, label %120

88:                                               ; preds = %84
  store i32 0, ptr %10, align 4, !tbaa !11
  br label %89

89:                                               ; preds = %116, %88
  %90 = load i32, ptr %10, align 4, !tbaa !11
  %91 = load i32, ptr %7, align 4, !tbaa !11
  %92 = load i32, ptr %8, align 4, !tbaa !11
  %93 = mul nsw i32 %91, %92
  %94 = icmp slt i32 %90, %93
  br i1 %94, label %95, label %119

95:                                               ; preds = %89
  %96 = load ptr, ptr %6, align 8, !tbaa !5
  %97 = load i32, ptr %10, align 4, !tbaa !11
  %98 = load i32, ptr %9, align 4, !tbaa !11
  %99 = mul nsw i32 %97, %98
  %100 = load i32, ptr %12, align 4, !tbaa !11
  %101 = add nsw i32 %99, %100
  %102 = sext i32 %101 to i64
  %103 = getelementptr inbounds i8, ptr %96, i64 %102
  %104 = load i8, ptr %103, align 1, !tbaa !31
  %105 = zext i8 %104 to i32
  %106 = sitofp i32 %105 to float
  %107 = fdiv float %106, 2.550000e+02
  %108 = load ptr, ptr %13, align 8, !tbaa !302
  %109 = load i32, ptr %10, align 4, !tbaa !11
  %110 = load i32, ptr %9, align 4, !tbaa !11
  %111 = mul nsw i32 %109, %110
  %112 = load i32, ptr %12, align 4, !tbaa !11
  %113 = add nsw i32 %111, %112
  %114 = sext i32 %113 to i64
  %115 = getelementptr inbounds float, ptr %108, i64 %114
  store float %107, ptr %115, align 4, !tbaa !304
  br label %116

116:                                              ; preds = %95
  %117 = load i32, ptr %10, align 4, !tbaa !11
  %118 = add nsw i32 %117, 1
  store i32 %118, ptr %10, align 4, !tbaa !11
  br label %89, !llvm.loop !308

119:                                              ; preds = %89
  br label %120

120:                                              ; preds = %119, %84
  %121 = load ptr, ptr %6, align 8, !tbaa !5
  call void @free(ptr noundef %121) #22
  %122 = load ptr, ptr %13, align 8, !tbaa !302
  store ptr %122, ptr %5, align 8
  store i32 1, ptr %14, align 4
  br label %123

123:                                              ; preds = %120, %25, %17
  call void @llvm.lifetime.end.p0(i64 8, ptr %13) #22
  call void @llvm.lifetime.end.p0(i64 4, ptr %12) #22
  call void @llvm.lifetime.end.p0(i64 4, ptr %11) #22
  call void @llvm.lifetime.end.p0(i64 4, ptr %10) #22
  %124 = load ptr, ptr %5, align 8
  ret ptr %124
}

; Function Attrs: mustprogress uwtable
define internal noundef ptr @_ZL16stbi__loadf_mainP13stbi__contextPiS1_S1_i(ptr noundef %0, ptr noundef %1, ptr noundef %2, ptr noundef %3, i32 noundef %4) #2 {
  %6 = alloca ptr, align 8
  %7 = alloca ptr, align 8
  %8 = alloca ptr, align 8
  %9 = alloca ptr, align 8
  %10 = alloca ptr, align 8
  %11 = alloca i32, align 4
  %12 = alloca ptr, align 8
  %13 = alloca i32, align 4
  store ptr %0, ptr %7, align 8, !tbaa !10
  store ptr %1, ptr %8, align 8, !tbaa !13
  store ptr %2, ptr %9, align 8, !tbaa !13
  store ptr %3, ptr %10, align 8, !tbaa !13
  store i32 %4, ptr %11, align 4, !tbaa !11
  call void @llvm.lifetime.start.p0(i64 8, ptr %12) #22
  %14 = load ptr, ptr %7, align 8, !tbaa !10
  %15 = load ptr, ptr %8, align 8, !tbaa !13
  %16 = load ptr, ptr %9, align 8, !tbaa !13
  %17 = load ptr, ptr %10, align 8, !tbaa !13
  %18 = load i32, ptr %11, align 4, !tbaa !11
  %19 = call noundef ptr @_ZL31stbi__load_and_postprocess_8bitP13stbi__contextPiS1_S1_i(ptr noundef %14, ptr noundef %15, ptr noundef %16, ptr noundef %17, i32 noundef %18)
  store ptr %19, ptr %12, align 8, !tbaa !5
  %20 = load ptr, ptr %12, align 8, !tbaa !5
  %21 = icmp ne ptr %20, null
  br i1 %21, label %22, label %38

22:                                               ; preds = %5
  %23 = load ptr, ptr %12, align 8, !tbaa !5
  %24 = load ptr, ptr %8, align 8, !tbaa !13
  %25 = load i32, ptr %24, align 4, !tbaa !11
  %26 = load ptr, ptr %9, align 8, !tbaa !13
  %27 = load i32, ptr %26, align 4, !tbaa !11
  %28 = load i32, ptr %11, align 4, !tbaa !11
  %29 = icmp ne i32 %28, 0
  br i1 %29, label %30, label %32

30:                                               ; preds = %22
  %31 = load i32, ptr %11, align 4, !tbaa !11
  br label %35

32:                                               ; preds = %22
  %33 = load ptr, ptr %10, align 8, !tbaa !13
  %34 = load i32, ptr %33, align 4, !tbaa !11
  br label %35

35:                                               ; preds = %32, %30
  %36 = phi i32 [ %31, %30 ], [ %34, %32 ]
  %37 = call noundef ptr @_ZL16stbi__ldr_to_hdrPhiii(ptr noundef %23, i32 noundef %25, i32 noundef %27, i32 noundef %36)
  store ptr %37, ptr %6, align 8
  store i32 1, ptr %13, align 4
  br label %43

38:                                               ; preds = %5
  %39 = call noundef i32 @_ZL9stbi__errPKc(ptr noundef @.str.2)
  %40 = icmp ne i32 %39, 0
  %41 = select i1 %40, i64 0, i64 0
  %42 = inttoptr i64 %41 to ptr
  store ptr %42, ptr %6, align 8
  store i32 1, ptr %13, align 4
  br label %43

43:                                               ; preds = %38, %35
  call void @llvm.lifetime.end.p0(i64 8, ptr %12) #22
  %44 = load ptr, ptr %6, align 8
  ret ptr %44
}