; Function Attrs: mustprogress uwtable
define internal fastcc noalias noundef ptr @_ZL16stbi__loadf_mainP13stbi__contextPiS1_S1_i(ptr noundef nonnull %0, ptr noundef captures(none) %1, ptr noundef captures(none) %2, ptr noundef %3, i32 noundef %4) unnamed_addr #4 {
  %6 = tail call fastcc noundef ptr @_ZL31stbi__load_and_postprocess_8bitP13stbi__contextPiS1_S1_i(ptr noundef %0, ptr noundef %1, ptr noundef %2, ptr noundef %3, i32 noundef %4)
  %.not = icmp eq ptr %6, null
  br i1 %.not, label %55, label %7

7:                                                ; preds = %5
  %8 = load i32, ptr %1, align 4, !tbaa !10
  %9 = load i32, ptr %2, align 4, !tbaa !10
  %.not14 = icmp eq i32 %4, 0
  br i1 %.not14, label %10, label %12

10:                                               ; preds = %7
  %11 = load i32, ptr %3, align 4, !tbaa !10
  br label %12

12:                                               ; preds = %7, %10
  %13 = phi i32 [ %11, %10 ], [ %4, %7 ]
  %14 = or i32 %9, %8
  %or.cond.not.i.i.i.i = icmp sgt i32 %14, -1
  br i1 %or.cond.not.i.i.i.i, label %15, label %_ZL17stbi__malloc_mad4iiiii.exit.thread.i

15:                                               ; preds = %12
  %16 = icmp eq i32 %9, 0
  br i1 %16, label %_ZL21stbi__mul2sizes_validii.exit.thread24.i.i.i, label %_ZL21stbi__mul2sizes_validii.exit.i.i.i

_ZL21stbi__mul2sizes_validii.exit.i.i.i:          ; preds = %15
  %17 = udiv i32 2147483647, %9
  %.not37.i.i.i = icmp sgt i32 %8, %17
  br i1 %.not37.i.i.i, label %_ZL17stbi__malloc_mad4iiiii.exit.thread.i, label %_ZL21stbi__mul2sizes_validii.exit.thread24.i.i.i

_ZL21stbi__mul2sizes_validii.exit.thread24.i.i.i: ; preds = %_ZL21stbi__mul2sizes_validii.exit.i.i.i, %15
  %18 = mul nsw i32 %9, %8
  %19 = or i32 %13, %18
  %or.cond.not.i16.i.i.i = icmp sgt i32 %19, -1
  br i1 %or.cond.not.i16.i.i.i, label %20, label %_ZL17stbi__malloc_mad4iiiii.exit.thread.i

20:                                               ; preds = %_ZL21stbi__mul2sizes_validii.exit.thread24.i.i.i
  %21 = icmp eq i32 %13, 0
  br i1 %21, label %_ZL21stbi__mul2sizes_validii.exit18.thread29.i.i.i, label %_ZL21stbi__mul2sizes_validii.exit18.i.i.i

_ZL21stbi__mul2sizes_validii.exit18.i.i.i:        ; preds = %20
  %22 = udiv i32 2147483647, %13
  %.not.i.i.i = icmp sgt i32 %18, %22
  br i1 %.not.i.i.i, label %_ZL17stbi__malloc_mad4iiiii.exit.thread.i, label %_ZL21stbi__mul2sizes_validii.exit18.thread29.i.i.i

_ZL21stbi__mul2sizes_validii.exit18.thread29.i.i.i: ; preds = %_ZL21stbi__mul2sizes_validii.exit18.i.i.i, %20
  %23 = mul nsw i32 %13, %18
  %or.cond.i = icmp ugt i32 %23, 536870911
  br i1 %or.cond.i, label %_ZL17stbi__malloc_mad4iiiii.exit.thread.i, label %_ZL17stbi__malloc_mad4iiiii.exit.i

_ZL17stbi__malloc_mad4iiiii.exit.i:               ; preds = %_ZL21stbi__mul2sizes_validii.exit18.thread29.i.i.i
  %24 = shl nuw nsw i32 %23, 2
  %25 = zext nneg i32 %24 to i64
  %26 = tail call noalias noundef ptr @malloc(i64 noundef range(i64 -2147483648, 4294967296) %25) #36
  %27 = icmp eq ptr %26, null
  br i1 %27, label %_ZL17stbi__malloc_mad4iiiii.exit.thread.i, label %28

_ZL17stbi__malloc_mad4iiiii.exit.thread.i:        ; preds = %_ZL17stbi__malloc_mad4iiiii.exit.i, %_ZL21stbi__mul2sizes_validii.exit18.thread29.i.i.i, %_ZL21stbi__mul2sizes_validii.exit18.i.i.i, %_ZL21stbi__mul2sizes_validii.exit.thread24.i.i.i, %_ZL21stbi__mul2sizes_validii.exit.i.i.i, %12
  tail call void @free(ptr noundef nonnull %6) #35
  store ptr @.str.23, ptr @_ZL22stbi__g_failure_reason, align 8, !tbaa !5
  br label %_ZL16stbi__ldr_to_hdrPhiii.exit

28:                                               ; preds = %_ZL17stbi__malloc_mad4iiiii.exit.i
  %29 = and i32 %13, 1
  %.not.i = icmp eq i32 %29, 0
  %30 = sext i1 %.not.i to i32
  %.040.i = add i32 %13, %30
  %31 = icmp sgt i32 %18, 0
  br i1 %31, label %.preheader48.lr.ph.i, label %.loopexit.i

.preheader48.lr.ph.i:                             ; preds = %28
  %32 = icmp sgt i32 %.040.i, 0
  %33 = load float, ptr @_ZL15stbi__l2h_gamma, align 4
  %34 = load float, ptr @_ZL15stbi__l2h_scale, align 4
  br i1 %32, label %.preheader48.us.preheader.i, label %._crit_edge51.i

.preheader48.us.preheader.i:                      ; preds = %.preheader48.lr.ph.i
  %35 = sext i32 %13 to i64
  %wide.trip.count59.i = zext nneg i32 %18 to i64
  %wide.trip.count.i = zext nneg i32 %.040.i to i64
  br label %.preheader48.us.i

.preheader48.us.i:                                ; preds = %._crit_edge.us.i, %.preheader48.us.preheader.i
  %indvars.iv56.i = phi i64 [ 0, %.preheader48.us.preheader.i ], [ %indvars.iv.next57.i, %._crit_edge.us.i ]
  %36 = mul nsw i64 %indvars.iv56.i, %35
  br label %37

37:                                               ; preds = %37, %.preheader48.us.i
  %indvars.iv.i = phi i64 [ 0, %.preheader48.us.i ], [ %indvars.iv.next.i, %37 ]
  %38 = add nsw i64 %indvars.iv.i, %36
  %39 = getelementptr inbounds i8, ptr %6, i64 %38
  %40 = load i8, ptr %39, align 1, !tbaa !23
  %41 = uitofp i8 %40 to float
  %42 = fdiv float %41, 2.550000e+02
  %43 = tail call float @powf(float noundef %42, float noundef %33) #35, !tbaa !10
  %44 = fmul float %34, %43
  %45 = getelementptr inbounds float, ptr %26, i64 %38
  store float %44, ptr %45, align 4, !tbaa !287
  %indvars.iv.next.i = add nuw nsw i64 %indvars.iv.i, 1
  %exitcond.not.i = icmp eq i64 %indvars.iv.next.i, %wide.trip.count.i
  br i1 %exitcond.not.i, label %._crit_edge.us.i, label %37, !llvm.loop !289

._crit_edge.us.i:                                 ; preds = %37
  %indvars.iv.next57.i = add nuw nsw i64 %indvars.iv56.i, 1
  %exitcond60.not.i = icmp eq i64 %indvars.iv.next57.i, %wide.trip.count59.i
  br i1 %exitcond60.not.i, label %._crit_edge51.i, label %.preheader48.us.i, !llvm.loop !290

._crit_edge51.i:                                  ; preds = %._crit_edge.us.i, %.preheader48.lr.ph.i
  br i1 %.not.i, label %.lr.ph.preheader.i, label %.loopexit.i

.lr.ph.preheader.i:                               ; preds = %._crit_edge51.i
  %46 = sext i32 %13 to i64
  %47 = sext i32 %.040.i to i64
  %wide.trip.count64.i = zext nneg i32 %18 to i64
  br label %.lr.ph.i

.lr.ph.i:                                         ; preds = %.lr.ph.i, %.lr.ph.preheader.i
  %indvars.iv61.i = phi i64 [ 0, %.lr.ph.preheader.i ], [ %indvars.iv.next62.i, %.lr.ph.i ]
  %48 = mul nsw i64 %indvars.iv61.i, %46
  %49 = add nsw i64 %48, %47
  %50 = getelementptr inbounds i8, ptr %6, i64 %49
  %51 = load i8, ptr %50, align 1, !tbaa !23
  %52 = uitofp i8 %51 to float
  %53 = fdiv float %52, 2.550000e+02
  %54 = getelementptr inbounds float, ptr %26, i64 %49
  store float %53, ptr %54, align 4, !tbaa !287
  %indvars.iv.next62.i = add nuw nsw i64 %indvars.iv61.i, 1
  %exitcond65.not.i = icmp eq i64 %indvars.iv.next62.i, %wide.trip.count64.i
  br i1 %exitcond65.not.i, label %.loopexit.i, label %.lr.ph.i, !llvm.loop !291

.loopexit.i:                                      ; preds = %.lr.ph.i, %._crit_edge51.i, %28
  tail call void @free(ptr noundef nonnull %6) #35
  br label %_ZL16stbi__ldr_to_hdrPhiii.exit

55:                                               ; preds = %5
  store ptr @.str.2, ptr @_ZL22stbi__g_failure_reason, align 8, !tbaa !5
  br label %_ZL16stbi__ldr_to_hdrPhiii.exit

_ZL16stbi__ldr_to_hdrPhiii.exit:                  ; preds = %.loopexit.i, %_ZL17stbi__malloc_mad4iiiii.exit.thread.i, %55
  %.0 = phi ptr [ null, %55 ], [ null, %_ZL17stbi__malloc_mad4iiiii.exit.thread.i ], [ %26, %.loopexit.i ]
  ret ptr %.0
}